target datalayout = "e-m:e-p270:32:32-p271:32:32-p272:64:64-i64:64-i128:128-f80:128-n8:16:32:64-S128"
target triple = "x86_64-pc-linux-gnu"

%struct.PaAlsaStream = type { %struct.PaUtilStreamRepresentation, %struct.PaUtilCpuLoadMeasurer, %struct.PaUtilBufferProcessor, %struct.PaUnixThread, i64, i64, i32, i32, i32, i32, ptr, i32, i32, i32, i32, %struct.PaUnixMutex, i32, double, double, %struct.PaAlsaStreamComponent, %struct.PaAlsaStreamComponent }
%struct.PaUtilStreamRepresentation = type { i64, ptr, ptr, ptr, ptr, ptr, %struct.PaStreamInfo }
%struct.PaStreamInfo = type { i32, double, double, double }
%struct.PaUtilCpuLoadMeasurer = type { double, double, double }
%struct.PaUtilBufferProcessor = type { i64, i64, i32, i32, i32, i32, i64, i32, i32, i32, i32, ptr, ptr, i32, i32, i32, i32, ptr, ptr, i64, i64, ptr, ptr, i64, ptr, ptr, i64, ptr, i64, i32, [2 x i64], [2 x ptr], i32, [2 x i64], [2 x ptr], %struct.PaUtilTriangularDitherGenerator, double, ptr, ptr }
%struct.PaUtilTriangularDitherGenerator = type { i32, i32, i32 }
%struct.PaUnixThread = type { i64, i32, i32, i32, %struct.PaUnixMutex, %union.pthread_cond_t, i32, i32 }
%union.pthread_cond_t = type { %struct.__pthread_cond_s }
%struct.__pthread_cond_s = type { %union.__atomic_wide_counter, %union.__atomic_wide_counter, [2 x i32], [2 x i32], i32, i32, [2 x i32] }
%union.__atomic_wide_counter = type { i64 }
%struct.PaUnixMutex = type { %union.pthread_mutex_t }
%union.pthread_mutex_t = type { %struct.__pthread_mutex_s }
%struct.__pthread_mutex_s = type { i32, i32, i32, i32, i32, i16, i16, %struct.__pthread_internal_list }
%struct.__pthread_internal_list = type { ptr, ptr }
%struct.PaAlsaStreamComponent = type { i64, i32, i32, i32, i32, i32, ptr, i32, i32, i32, i32, ptr, i64, i64, i32, i32, i32, ptr, i64, i32, ptr }

@paUtilErr_ = internal global i32 0, align 4
@alsa_snd_pcm_avail_update = internal global ptr null, align 8
@alsa_snd_strerror = internal global ptr null, align 8
@paUnixMainThread = external global i64, align 8
@.str.186 = private unnamed_addr constant [180 x i8] c"Expression 'framesAvail' failed in 'generated/home/dtcxzyw/WorkSpace/Projects/compilers/llvm-opt-benchmark/bench/portaudio/portaudio/src/hostapi/alsa/pa_linux_alsa.c', line: 3666\0A\00", align 1
@.str.228 = private unnamed_addr constant [202 x i8] c"Expression 'PaAlsaStream_HandleXrun( stream )' failed in 'generated/home/dtcxzyw/WorkSpace/Projects/compilers/llvm-opt-benchmark/bench/portaudio/portaudio/src/hostapi/alsa/pa_linux_alsa.c', line: 4605\0A\00", align 1
@.str.229 = private unnamed_addr constant [175 x i8] c"Expression 'savail' failed in 'generated/home/dtcxzyw/WorkSpace/Projects/compilers/llvm-opt-benchmark/bench/portaudio/portaudio/src/hostapi/alsa/pa_linux_alsa.c', line: 4609\0A\00", align 1

; Function Attrs: inlinehint nounwind willreturn memory(none) uwtable
define available_externally i32 @pthread_equal(i64 noundef %0, i64 noundef %1) #8 {
  %3 = alloca i64, align 8
  %4 = alloca i64, align 8
  store i64 %0, ptr %3, align 8, !tbaa !37
  store i64 %1, ptr %4, align 8, !tbaa !37
  %5 = load i64, ptr %3, align 8, !tbaa !37
  %6 = load i64, ptr %4, align 8, !tbaa !37
  %7 = icmp eq i64 %5, %6
  %8 = zext i1 %7 to i32
  ret i32 %8
}

; Function Attrs: nounwind uwtable
define internal i32 @PaAlsaStreamComponent_GetAvailableFrames(ptr noundef %0, ptr noundef %1, ptr noundef %2) #0 {
  %4 = alloca i32, align 4
  %5 = alloca ptr, align 8
  %6 = alloca ptr, align 8
  %7 = alloca ptr, align 8
  %8 = alloca i32, align 4
  %9 = alloca i64, align 8
  %10 = alloca i32, align 4
  %11 = alloca i32, align 4
  store ptr %0, ptr %5, align 8, !tbaa !32
  store ptr %1, ptr %6, align 8, !tbaa !206
  store ptr %2, ptr %7, align 8, !tbaa !122
  call void @llvm.lifetime.start.p0(i64 4, ptr %8) #17
  store i32 0, ptr %8, align 4, !tbaa !8
  call void @llvm.lifetime.start.p0(i64 8, ptr %9) #17
  %12 = load ptr, ptr @alsa_snd_pcm_avail_update, align 8, !tbaa !32
  %13 = load ptr, ptr %5, align 8, !tbaa !32
  %14 = getelementptr inbounds nuw %struct.PaAlsaStreamComponent, ptr %13, i32 0, i32 11
  %15 = load ptr, ptr %14, align 8, !tbaa !179
  %16 = call i64 %12(ptr noundef %15)
  store i64 %16, ptr %9, align 8, !tbaa !37
  %17 = load ptr, ptr %7, align 8, !tbaa !122
  store i32 0, ptr %17, align 4, !tbaa !8
  %18 = load i64, ptr %9, align 8, !tbaa !37
  %19 = icmp eq i64 -32, %18
  br i1 %19, label %20, label %22

20:                                               ; preds = %3
  %21 = load ptr, ptr %7, align 8, !tbaa !122
  store i32 1, ptr %21, align 4, !tbaa !8
  store i64 0, ptr %9, align 8, !tbaa !37
  br label %49

22:                                               ; preds = %3
  br label %23

23:                                               ; preds = %22
  call void @llvm.lifetime.start.p0(i64 4, ptr %10) #17
  %24 = load i64, ptr %9, align 8, !tbaa !37
  %25 = trunc i64 %24 to i32
  store i32 %25, ptr %10, align 4, !tbaa !8
  %26 = icmp slt i32 %25, 0
  %27 = zext i1 %26 to i32
  %28 = sext i32 %27 to i64
  %29 = call i64 @llvm.expect.i64(i64 %28, i64 0)
  %30 = icmp ne i64 %29, 0
  br i1 %30, label %31, label %43

31:                                               ; preds = %23
  %32 = call i64 @pthread_self() #20
  %33 = load i64, ptr @paUnixMainThread, align 8, !tbaa !37
  %34 = call i32 @pthread_equal(i64 noundef %32, i64 noundef %33) #20
  %35 = icmp ne i32 %34, 0
  br i1 %35, label %36, label %42

36:                                               ; preds = %31
  %37 = load i32, ptr %10, align 4, !tbaa !8
  %38 = sext i32 %37 to i64
  %39 = load ptr, ptr @alsa_snd_strerror, align 8, !tbaa !32
  %40 = load i32, ptr %10, align 4, !tbaa !8
  %41 = call ptr %39(i32 noundef %40)
  call void @PaUtil_SetLastHostErrorInfo(i32 noundef 8, i64 noundef %38, ptr noundef %41)
  br label %42

42:                                               ; preds = %36, %31
  call void (ptr, ...) @PaUtil_DebugPrint(ptr noundef @.str.186)
  store i32 -9999, ptr %8, align 4, !tbaa !8
  store i32 4, ptr %11, align 4
  br label %44

43:                                               ; preds = %23
  store i32 0, ptr %11, align 4
  br label %44

44:                                               ; preds = %42, %43
  call void @llvm.lifetime.end.p0(i64 4, ptr %10) #17
  %45 = load i32, ptr %11, align 4
  switch i32 %45, label %54 [
    i32 0, label %46
    i32 4, label %52
  ]

46:                                               ; preds = %44
  br label %47

47:                                               ; preds = %46
  br label %48

48:                                               ; preds = %47
  br label %49

49:                                               ; preds = %48, %20
  %50 = load i64, ptr %9, align 8, !tbaa !37
  %51 = load ptr, ptr %6, align 8, !tbaa !206
  store i64 %50, ptr %51, align 8, !tbaa !37
  br label %52

52:                                               ; preds = %49, %44
  %53 = load i32, ptr %8, align 4, !tbaa !8
  store i32 %53, ptr %4, align 4
  store i32 1, ptr %11, align 4
  br label %54

54:                                               ; preds = %52, %44
  call void @llvm.lifetime.end.p0(i64 8, ptr %9) #17
  call void @llvm.lifetime.end.p0(i64 4, ptr %8) #17
  %55 = load i32, ptr %4, align 4
  ret i32 %55
}

; Function Attrs: nounwind uwtable
define internal i64 @GetStreamWriteAvailable(ptr noundef %0) #0 {
  %2 = alloca i64, align 8
  %3 = alloca ptr, align 8
  %4 = alloca i32, align 4
  %5 = alloca ptr, align 8
  %6 = alloca i64, align 8
  %7 = alloca i32, align 4
  %8 = alloca i64, align 8
  %9 = alloca i32, align 4
  %10 = alloca i32, align 4
  store ptr %0, ptr %3, align 8, !tbaa !32
  call void @llvm.lifetime.start.p0(i64 4, ptr %4) #17
  store i32 0, ptr %4, align 4, !tbaa !8
  call void @llvm.lifetime.start.p0(i64 8, ptr %5) #17
  %11 = load ptr, ptr %3, align 8, !tbaa !32
  store ptr %11, ptr %5, align 8, !tbaa !38
  call void @llvm.lifetime.start.p0(i64 8, ptr %6) #17
  call void @llvm.lifetime.start.p0(i64 4, ptr %7) #17
  br label %12

12:                                               ; preds = %1
  %13 = load ptr, ptr %5, align 8, !tbaa !38
  %14 = getelementptr inbounds nuw %struct.PaAlsaStream, ptr %13, i32 0, i32 20
  %15 = call i32 @PaAlsaStreamComponent_GetAvailableFrames(ptr noundef %14, ptr noundef %6, ptr noundef %7)
  store i32 %15, ptr @paUtilErr_, align 4, !tbaa !8
  %16 = icmp slt i32 %15, 0
  %17 = zext i1 %16 to i32
  %18 = sext i32 %17 to i64
  %19 = call i64 @llvm.expect.i64(i64 %18, i64 0)
  %20 = icmp ne i64 %19, 0
  br i1 %20, label %21, label %23

21:                                               ; preds = %12
  call void (ptr, ...) @PaUtil_DebugPrint(ptr noundef @.str.227)
  %22 = load i32, ptr @paUtilErr_, align 4, !tbaa !8
  store i32 %22, ptr %4, align 4, !tbaa !8
  br label %80

23:                                               ; preds = %12
  br label %24

24:                                               ; preds = %23
  br label %25

25:                                               ; preds = %24
  %26 = load i32, ptr %7, align 4, !tbaa !8
  %27 = icmp ne i32 %26, 0
  br i1 %27, label %28, label %78

28:                                               ; preds = %25
  call void @llvm.lifetime.start.p0(i64 8, ptr %8) #17
  br label %29

29:                                               ; preds = %28
  %30 = load ptr, ptr %5, align 8, !tbaa !38
  %31 = call i32 @PaAlsaStream_HandleXrun(ptr noundef %30)
  store i32 %31, ptr @paUtilErr_, align 4, !tbaa !8
  %32 = icmp slt i32 %31, 0
  %33 = zext i1 %32 to i32
  %34 = sext i32 %33 to i64
  %35 = call i64 @llvm.expect.i64(i64 %34, i64 0)
  %36 = icmp ne i64 %35, 0
  br i1 %36, label %37, label %39

37:                                               ; preds = %29
  call void (ptr, ...) @PaUtil_DebugPrint(ptr noundef @.str.228)
  %38 = load i32, ptr @paUtilErr_, align 4, !tbaa !8
  store i32 %38, ptr %4, align 4, !tbaa !8
  store i32 4, ptr %10, align 4
  br label %75

39:                                               ; preds = %29
  br label %40

40:                                               ; preds = %39
  br label %41

41:                                               ; preds = %40
  %42 = load ptr, ptr @alsa_snd_pcm_avail_update, align 8, !tbaa !32
  %43 = load ptr, ptr %5, align 8, !tbaa !38
  %44 = getelementptr inbounds nuw %struct.PaAlsaStream, ptr %43, i32 0, i32 20
  %45 = getelementptr inbounds nuw %struct.PaAlsaStreamComponent, ptr %44, i32 0, i32 11
  %46 = load ptr, ptr %45, align 8, !tbaa !101
  %47 = call i64 %42(ptr noundef %46)
  store i64 %47, ptr %8, align 8, !tbaa !37
  br label %48

48:                                               ; preds = %41
  call void @llvm.lifetime.start.p0(i64 4, ptr %9) #17
  %49 = load i64, ptr %8, align 8, !tbaa !37
  %50 = trunc i64 %49 to i32
  store i32 %50, ptr %9, align 4, !tbaa !8
  %51 = icmp slt i32 %50, 0
  %52 = zext i1 %51 to i32
  %53 = sext i32 %52 to i64
  %54 = call i64 @llvm.expect.i64(i64 %53, i64 0)
  %55 = icmp ne i64 %54, 0
  br i1 %55, label %56, label %68

56:                                               ; preds = %48
  %57 = call i64 @pthread_self() #20
  %58 = load i64, ptr @paUnixMainThread, align 8, !tbaa !37
  %59 = call i32 @pthread_equal(i64 noundef %57, i64 noundef %58) #20
  %60 = icmp ne i32 %59, 0
  br i1 %60, label %61, label %67

61:                                               ; preds = %56
  %62 = load i32, ptr %9, align 4, !tbaa !8
  %63 = sext i32 %62 to i64
  %64 = load ptr, ptr @alsa_snd_strerror, align 8, !tbaa !32
  %65 = load i32, ptr %9, align 4, !tbaa !8
  %66 = call ptr %64(i32 noundef %65)
  call void @PaUtil_SetLastHostErrorInfo(i32 noundef 8, i64 noundef %63, ptr noundef %66)
  br label %67

67:                                               ; preds = %61, %56
  call void (ptr, ...) @PaUtil_DebugPrint(ptr noundef @.str.229)
  store i32 -9999, ptr %4, align 4, !tbaa !8
  store i32 4, ptr %10, align 4
  br label %69

68:                                               ; preds = %48
  store i32 0, ptr %10, align 4
  br label %69

69:                                               ; preds = %67, %68
  call void @llvm.lifetime.end.p0(i64 4, ptr %9) #17
  %70 = load i32, ptr %10, align 4
  switch i32 %70, label %75 [
    i32 0, label %71
  ]

71:                                               ; preds = %69
  br label %72

72:                                               ; preds = %71
  br label %73

73:                                               ; preds = %72
  %74 = load i64, ptr %8, align 8, !tbaa !37
  store i64 %74, ptr %6, align 8, !tbaa !37
  store i32 0, ptr %10, align 4
  br label %75

75:                                               ; preds = %37, %73, %69
  call void @llvm.lifetime.end.p0(i64 8, ptr %8) #17
  %76 = load i32, ptr %10, align 4
  switch i32 %76, label %83 [
    i32 0, label %77
    i32 4, label %80
  ]

77:                                               ; preds = %75
  br label %78

78:                                               ; preds = %77, %25
  %79 = load i64, ptr %6, align 8, !tbaa !37
  store i64 %79, ptr %2, align 8
  store i32 1, ptr %10, align 4
  br label %83

80:                                               ; preds = %75, %21
  %81 = load i32, ptr %4, align 4, !tbaa !8
  %82 = sext i32 %81 to i64
  store i64 %82, ptr %2, align 8
  store i32 1, ptr %10, align 4
  br label %83

83:                                               ; preds = %80, %78, %75
  call void @llvm.lifetime.end.p0(i64 4, ptr %7) #17
  call void @llvm.lifetime.end.p0(i64 8, ptr %6) #17
  call void @llvm.lifetime.end.p0(i64 8, ptr %5) #17
  call void @llvm.lifetime.end.p0(i64 4, ptr %4) #17
  %84 = load i64, ptr %2, align 8
  ret i64 %84
}