; Function Attrs: nounwind uwtable
define internal i64 @GetStreamWriteAvailable(ptr noundef %0) #2 {
  %2 = getelementptr i8, ptr %0, i64 832
  %.val = load ptr, ptr %2, align 8, !tbaa !147
  %3 = tail call i64 @snd_pcm_avail_update(ptr noundef %.val) #25, !callees !148
  %4 = icmp eq i64 %3, -32
  br i1 %4, label %16, label %5

5:                                                ; preds = %1
  %6 = trunc i64 %3 to i32
  %7 = icmp slt i32 %6, 0
  br i1 %7, label %8, label %.thread, !prof !9

.thread:                                          ; preds = %5
  store i32 0, ptr @paUtilErr_, align 4, !tbaa !3
  br label %34

8:                                                ; preds = %5
  %9 = tail call i64 @pthread_self() #28
  %10 = load i64, ptr @paUnixMainThread, align 8, !tbaa !108
  %.not.i = icmp eq i64 %9, %10
  br i1 %.not.i, label %11, label %14

11:                                               ; preds = %8
  %sext.i = shl i64 %3, 32
  %12 = ashr exact i64 %sext.i, 32
  %13 = tail call ptr @snd_strerror(i32 noundef %6) #25, !callees !109
  tail call void @PaUtil_SetLastHostErrorInfo(i32 noundef 8, i64 noundef %12, ptr noundef %13) #25
  br label %14

14:                                               ; preds = %11, %8
  tail call void (ptr, ...) @PaUtil_DebugPrint(ptr noundef nonnull @.str.186) #25
  store i32 -9999, ptr @paUtilErr_, align 4, !tbaa !3
  tail call void (ptr, ...) @PaUtil_DebugPrint(ptr noundef nonnull @.str.227) #25
  %15 = load i32, ptr @paUtilErr_, align 4, !tbaa !3
  br label %.thread34

16:                                               ; preds = %1
  store i32 0, ptr @paUtilErr_, align 4, !tbaa !3
  %17 = tail call fastcc i32 @PaAlsaStream_HandleXrun(ptr noundef nonnull %0)
  store i32 %17, ptr @paUtilErr_, align 4, !tbaa !3
  %18 = icmp slt i32 %17, 0
  br i1 %18, label %19, label %21, !prof !9

19:                                               ; preds = %16
  tail call void (ptr, ...) @PaUtil_DebugPrint(ptr noundef nonnull @.str.228) #25
  %20 = load i32, ptr @paUtilErr_, align 4, !tbaa !3
  br label %.thread34

21:                                               ; preds = %16
  %22 = load ptr, ptr %2, align 8, !tbaa !130
  %23 = tail call i64 @snd_pcm_avail_update(ptr noundef %22) #25, !callees !148
  %24 = trunc i64 %23 to i32
  %25 = icmp sgt i32 %24, -1
  br i1 %25, label %34, label %26, !prof !35

26:                                               ; preds = %21
  %27 = tail call i64 @pthread_self() #28
  %28 = load i64, ptr @paUnixMainThread, align 8, !tbaa !108
  %.not = icmp eq i64 %27, %28
  br i1 %.not, label %29, label %32

29:                                               ; preds = %26
  %sext = shl i64 %23, 32
  %30 = ashr exact i64 %sext, 32
  %31 = tail call ptr @snd_strerror(i32 noundef %24) #25, !callees !109
  tail call void @PaUtil_SetLastHostErrorInfo(i32 noundef 8, i64 noundef %30, ptr noundef %31) #25
  br label %32

32:                                               ; preds = %26, %29
  tail call void (ptr, ...) @PaUtil_DebugPrint(ptr noundef nonnull @.str.229) #25
  br label %.thread34

.thread34:                                        ; preds = %32, %19, %14
  %.012 = phi i32 [ %15, %14 ], [ -9999, %32 ], [ %20, %19 ]
  %33 = sext i32 %.012 to i64
  br label %34

34:                                               ; preds = %.thread, %21, %.thread34
  %.011 = phi i64 [ %33, %.thread34 ], [ %3, %.thread ], [ %23, %21 ]
  ret i64 %.011
}